target datalayout = "e-m:e-p270:32:32-p271:32:32-p272:64:64-i64:64-i128:128-f80:128-n8:16:32:64-S128"
target triple = "x86_64-pc-linux-gnu"

%struct.cl_fmap = type { ptr, ptr, ptr, i64, i64, i64, i64, i8, i8, i8, i64, i64, i64, i64, ptr, ptr, ptr, ptr, ptr, ptr, ptr, i8, [16 x i8], i8, [20 x i8], i8, [32 x i8], ptr, ptr }

; Function Attrs: nounwind uwtable
define void @free_duplicate_fmap(ptr noundef %0) #0 {
  %2 = alloca ptr, align 8
  store ptr %0, ptr %2, align 8
  %3 = load ptr, ptr %2, align 8
  %4 = icmp ne ptr null, %3
  br i1 %4, label %5, label %18

5:                                                ; preds = %1
  %6 = load ptr, ptr %2, align 8
  %7 = getelementptr inbounds %struct.cl_fmap, ptr %6, i32 0, i32 28
  %8 = load ptr, ptr %7, align 8
  %9 = icmp ne ptr null, %8
  br i1 %9, label %10, label %16

10:                                               ; preds = %5
  %11 = load ptr, ptr %2, align 8
  %12 = getelementptr inbounds %struct.cl_fmap, ptr %11, i32 0, i32 28
  %13 = load ptr, ptr %12, align 8
  call void @free(ptr noundef %13) #8
  %14 = load ptr, ptr %2, align 8
  %15 = getelementptr inbounds %struct.cl_fmap, ptr %14, i32 0, i32 28
  store ptr null, ptr %15, align 8
  br label %16

16:                                               ; preds = %10, %5
  %17 = load ptr, ptr %2, align 8
  call void @free(ptr noundef %17) #8
  br label %18

18:                                               ; preds = %16, %1
  ret void
}