; Function Attrs: mustprogress nounwind willreturn uwtable
define void @free_duplicate_fmap(ptr noundef %0) local_unnamed_addr #7 {
  %.not = icmp eq ptr %0, null
  br i1 %.not, label %7, label %2

2:                                                ; preds = %1
  %3 = getelementptr inbounds i8, ptr %0, i64 232
  %4 = load ptr, ptr %3, align 8
  %.not6 = icmp eq ptr %4, null
  br i1 %.not6, label %6, label %5

5:                                                ; preds = %2
  tail call void @free(ptr noundef nonnull %4) #18
  br label %6

6:                                                ; preds = %5, %2
  tail call void @free(ptr noundef nonnull %0) #18
  br label %7

7:                                                ; preds = %6, %1
  ret void
}